; Function Attrs: uwtable
define dso_local void @_ZThn384_N3net16QuicCryptoStream18OnHandshakeMessageERKNS_22CryptoHandshakeMessageE(ptr nocapture noundef readonly %this, ptr noundef nonnull align 8 dereferenceable(72) %message) unnamed_addr #4 align 2 {
entry:
  %session_.i.i = getelementptr inbounds i8, ptr %this, i64 -160
  %0 = load ptr, ptr %session_.i.i, align 8
  %vtable.i = load ptr, ptr %0, align 8
  %vfn.i = getelementptr inbounds i8, ptr %vtable.i, i64 224
  %1 = load ptr, ptr %vfn.i, align 8
  tail call void %1(ptr noundef nonnull align 8 dereferenceable(2044) %0, ptr noundef nonnull align 8 dereferenceable(72) %message)
  ret void
}